target datalayout = "e-m:e-p270:32:32-p271:32:32-p272:64:64-i64:64-i128:128-f80:128-n8:16:32:64-S128"
target triple = "x86_64-pc-linux-gnu"

%struct.jpeg_common_struct = type { ptr, ptr, ptr, ptr, i32, i32 }
%struct.jpeg_memory_mgr = type { ptr, ptr, ptr, ptr, ptr, ptr, ptr, ptr, ptr, ptr, ptr, i64, i64 }
%struct.jpeg_decompress_struct = type { ptr, ptr, ptr, ptr, i32, i32, ptr, i32, i32, i32, i32, i32, i32, i32, double, i32, i32, i32, i32, i32, i32, i32, i32, i32, i32, i32, i32, i32, i32, i32, i32, i32, i32, ptr, i32, i32, i32, i32, i32, ptr, [4 x ptr], [4 x ptr], [4 x ptr], i32, ptr, i32, i32, [16 x i8], [16 x i8], [16 x i8], i32, i32, i8, i8, i8, i16, i16, i32, i8, i32, ptr, i32, i32, i32, i32, ptr, i32, [4 x ptr], i32, i32, i32, [10 x i32], i32, i32, i32, i32, i32, ptr, ptr, ptr, ptr, ptr, ptr, ptr, ptr, ptr, ptr, ptr }
%struct.JQUANT_TBL = type { [64 x i16], i32 }
%struct.JHUFF_TBL = type { [17 x i8], [256 x i8], i32 }

; Function Attrs: nounwind uwtable
define hidden void @jAbort(ptr noundef %0) #0 {
  %2 = alloca ptr, align 8
  %3 = alloca i32, align 4
  store ptr %0, ptr %2, align 8
  %4 = load ptr, ptr %2, align 8
  %5 = getelementptr inbounds %struct.jpeg_common_struct, ptr %4, i32 0, i32 1
  %6 = load ptr, ptr %5, align 8
  %7 = icmp eq ptr %6, null
  br i1 %7, label %8, label %9

8:                                                ; preds = %1
  br label %37

9:                                                ; preds = %1
  store i32 1, ptr %3, align 4
  br label %10

10:                                               ; preds = %21, %9
  %11 = load i32, ptr %3, align 4
  %12 = icmp sgt i32 %11, 0
  br i1 %12, label %13, label %24

13:                                               ; preds = %10
  %14 = load ptr, ptr %2, align 8
  %15 = getelementptr inbounds %struct.jpeg_common_struct, ptr %14, i32 0, i32 1
  %16 = load ptr, ptr %15, align 8
  %17 = getelementptr inbounds %struct.jpeg_memory_mgr, ptr %16, i32 0, i32 9
  %18 = load ptr, ptr %17, align 8
  %19 = load ptr, ptr %2, align 8
  %20 = load i32, ptr %3, align 4
  call void %18(ptr noundef %19, i32 noundef %20)
  br label %21

21:                                               ; preds = %13
  %22 = load i32, ptr %3, align 4
  %23 = add nsw i32 %22, -1
  store i32 %23, ptr %3, align 4
  br label %10, !llvm.loop !6

24:                                               ; preds = %10
  %25 = load ptr, ptr %2, align 8
  %26 = getelementptr inbounds %struct.jpeg_common_struct, ptr %25, i32 0, i32 4
  %27 = load i32, ptr %26, align 8
  %28 = icmp ne i32 %27, 0
  br i1 %28, label %29, label %34

29:                                               ; preds = %24
  %30 = load ptr, ptr %2, align 8
  %31 = getelementptr inbounds %struct.jpeg_common_struct, ptr %30, i32 0, i32 5
  store i32 200, ptr %31, align 4
  %32 = load ptr, ptr %2, align 8
  %33 = getelementptr inbounds %struct.jpeg_decompress_struct, ptr %32, i32 0, i32 60
  store ptr null, ptr %33, align 8
  br label %37

34:                                               ; preds = %24
  %35 = load ptr, ptr %2, align 8
  %36 = getelementptr inbounds %struct.jpeg_common_struct, ptr %35, i32 0, i32 5
  store i32 100, ptr %36, align 4
  br label %37

37:                                               ; preds = %34, %29, %8
  ret void
}

; Function Attrs: nounwind uwtable
define hidden void @jDestroy(ptr noundef %0) #0 {
  %2 = alloca ptr, align 8
  store ptr %0, ptr %2, align 8
  %3 = load ptr, ptr %2, align 8
  %4 = getelementptr inbounds %struct.jpeg_common_struct, ptr %3, i32 0, i32 1
  %5 = load ptr, ptr %4, align 8
  %6 = icmp ne ptr %5, null
  br i1 %6, label %7, label %14

7:                                                ; preds = %1
  %8 = load ptr, ptr %2, align 8
  %9 = getelementptr inbounds %struct.jpeg_common_struct, ptr %8, i32 0, i32 1
  %10 = load ptr, ptr %9, align 8
  %11 = getelementptr inbounds %struct.jpeg_memory_mgr, ptr %10, i32 0, i32 10
  %12 = load ptr, ptr %11, align 8
  %13 = load ptr, ptr %2, align 8
  call void %12(ptr noundef %13)
  br label %14

14:                                               ; preds = %7, %1
  %15 = load ptr, ptr %2, align 8
  %16 = getelementptr inbounds %struct.jpeg_common_struct, ptr %15, i32 0, i32 1
  store ptr null, ptr %16, align 8
  %17 = load ptr, ptr %2, align 8
  %18 = getelementptr inbounds %struct.jpeg_common_struct, ptr %17, i32 0, i32 5
  store i32 0, ptr %18, align 4
  ret void
}

; Function Attrs: nounwind uwtable
define hidden ptr @jAlcQTable(ptr noundef %0) #0 {
  %2 = alloca ptr, align 8
  %3 = alloca ptr, align 8
  store ptr %0, ptr %2, align 8
  %4 = load ptr, ptr %2, align 8
  %5 = getelementptr inbounds %struct.jpeg_common_struct, ptr %4, i32 0, i32 1
  %6 = load ptr, ptr %5, align 8
  %7 = getelementptr inbounds %struct.jpeg_memory_mgr, ptr %6, i32 0, i32 0
  %8 = load ptr, ptr %7, align 8
  %9 = load ptr, ptr %2, align 8
  %10 = call ptr %8(ptr noundef %9, i32 noundef 0, i64 noundef 132)
  store ptr %10, ptr %3, align 8
  %11 = load ptr, ptr %3, align 8
  %12 = getelementptr inbounds %struct.JQUANT_TBL, ptr %11, i32 0, i32 1
  store i32 0, ptr %12, align 4
  %13 = load ptr, ptr %3, align 8
  ret ptr %13
}

; Function Attrs: nounwind uwtable
define hidden ptr @jAlcHTable(ptr noundef %0) #0 {
  %2 = alloca ptr, align 8
  %3 = alloca ptr, align 8
  store ptr %0, ptr %2, align 8
  %4 = load ptr, ptr %2, align 8
  %5 = getelementptr inbounds %struct.jpeg_common_struct, ptr %4, i32 0, i32 1
  %6 = load ptr, ptr %5, align 8
  %7 = getelementptr inbounds %struct.jpeg_memory_mgr, ptr %6, i32 0, i32 0
  %8 = load ptr, ptr %7, align 8
  %9 = load ptr, ptr %2, align 8
  %10 = call ptr %8(ptr noundef %9, i32 noundef 0, i64 noundef 280)
  store ptr %10, ptr %3, align 8
  %11 = load ptr, ptr %3, align 8
  %12 = getelementptr inbounds %struct.JHUFF_TBL, ptr %11, i32 0, i32 2
  store i32 0, ptr %12, align 4
  %13 = load ptr, ptr %3, align 8
  ret ptr %13
}


!llvm.module.flags = !{!0, !1, !2, !3, !4, !5}

!0 = !{i32 7, !"Dwarf Version", i32 5}
!1 = !{i32 2, !"Debug Info Version", i32 3}
!2 = !{i32 1, !"wchar_size", i32 4}
!3 = !{i32 8, !"PIC Level", i32 2}
!4 = !{i32 7, !"uwtable", i32 2}
!5 = !{i32 7, !"frame-pointer", i32 2}
!6 = distinct !{!6, !7}
!7 = !{!"llvm.loop.mustprogress"}
